target datalayout = "e-m:e-p270:32:32-p271:32:32-p272:64:64-i64:64-i128:128-f80:128-n8:16:32:64-S128"
target triple = "x86_64-unknown-linux-gnu"

%struct.Object = type { ptr, ptr, ptr, i32, ptr }
%struct.DeviceState = type { %struct.Object, ptr, ptr, i8, i8, i64, ptr, i32, i8, ptr, %struct.NamedGPIOListHead, %struct.NamedClockListHead, %struct.BusStateHead, i32, i32, i32, %struct.ResettableState, ptr, %struct.MemReentrancyGuard }
%struct.NamedGPIOListHead = type { ptr }
%struct.NamedClockListHead = type { ptr }
%struct.BusStateHead = type { ptr }
%struct.ResettableState = type { i32, i8, i8 }
%struct.MemReentrancyGuard = type { i8 }

@.str = private unnamed_addr constant [28 x i8] c"../qemu/system/bootdevice.c\00", align 1
@.str.12 = private unnamed_addr constant [8 x i8] c"devpath\00", align 1
@__PRETTY_FUNCTION__.get_boot_device_path = private unnamed_addr constant [63 x i8] c"char *get_boot_device_path(DeviceState *, _Bool, const char *)\00", align 1
@.str.13 = private unnamed_addr constant [8 x i8] c"!suffix\00", align 1
@.str.14 = private unnamed_addr constant [5 x i8] c"%s%s\00", align 1
@.str.15 = private unnamed_addr constant [1 x i8] zeroinitializer, align 1

; Function Attrs: nounwind sspstrong uwtable
define internal ptr @get_boot_device_path(ptr noundef %dev, i1 noundef zeroext %ignore_suffixes, ptr noundef %suffix) #0 {
entry:
  %dev.addr = alloca ptr, align 8
  %ignore_suffixes.addr = alloca i8, align 1
  %suffix.addr = alloca ptr, align 8
  %devpath = alloca ptr, align 8
  %s = alloca ptr, align 8
  %d = alloca ptr, align 8
  %bootpath = alloca ptr, align 8
  store ptr %dev, ptr %dev.addr, align 8
  %frombool = zext i1 %ignore_suffixes to i8
  store i8 %frombool, ptr %ignore_suffixes.addr, align 1
  store ptr %suffix, ptr %suffix.addr, align 8
  store ptr null, ptr %devpath, align 8
  store ptr null, ptr %s, align 8
  %0 = load ptr, ptr %dev.addr, align 8
  %tobool = icmp ne ptr %0, null
  br i1 %tobool, label %if.then, label %if.end3

if.then:                                          ; preds = %entry
  %1 = load ptr, ptr %dev.addr, align 8
  %call = call ptr @qdev_get_fw_dev_path(ptr noundef %1)
  store ptr %call, ptr %devpath, align 8
  %2 = load ptr, ptr %devpath, align 8
  %tobool1 = icmp ne ptr %2, null
  br i1 %tobool1, label %if.then2, label %if.else

if.then2:                                         ; preds = %if.then
  br label %if.end

if.else:                                          ; preds = %if.then
  call void @__assert_fail(ptr noundef @.str.12, ptr noundef @.str, i32 noundef 212, ptr noundef @__PRETTY_FUNCTION__.get_boot_device_path) #7
  unreachable

if.end:                                           ; preds = %if.then2
  br label %if.end3

if.end3:                                          ; preds = %if.end, %entry
  %3 = load i8, ptr %ignore_suffixes.addr, align 1
  %tobool4 = trunc i8 %3 to i1
  br i1 %tobool4, label %if.end21, label %if.then5

if.then5:                                         ; preds = %if.end3
  %4 = load ptr, ptr %dev.addr, align 8
  %tobool6 = icmp ne ptr %4, null
  br i1 %tobool6, label %if.then7, label %if.else18

if.then7:                                         ; preds = %if.then5
  %5 = load ptr, ptr %dev.addr, align 8
  %parent_bus = getelementptr inbounds %struct.DeviceState, ptr %5, i32 0, i32 9
  %6 = load ptr, ptr %parent_bus, align 8
  %7 = load ptr, ptr %dev.addr, align 8
  %call8 = call ptr @qdev_get_own_fw_dev_path_from_handler(ptr noundef %6, ptr noundef %7)
  store ptr %call8, ptr %d, align 8
  %8 = load ptr, ptr %d, align 8
  %tobool9 = icmp ne ptr %8, null
  br i1 %tobool9, label %if.then10, label %if.else15

if.then10:                                        ; preds = %if.then7
  %9 = load ptr, ptr %suffix.addr, align 8
  %tobool11 = icmp ne ptr %9, null
  br i1 %tobool11, label %if.else13, label %if.then12

if.then12:                                        ; preds = %if.then10
  br label %if.end14

if.else13:                                        ; preds = %if.then10
  call void @__assert_fail(ptr noundef @.str.13, ptr noundef @.str, i32 noundef 219, ptr noundef @__PRETTY_FUNCTION__.get_boot_device_path) #7
  unreachable

if.end14:                                         ; preds = %if.then12
  %10 = load ptr, ptr %d, align 8
  store ptr %10, ptr %s, align 8
  br label %if.end17

if.else15:                                        ; preds = %if.then7
  %11 = load ptr, ptr %suffix.addr, align 8
  %call16 = call noalias ptr @g_strdup(ptr noundef %11)
  store ptr %call16, ptr %s, align 8
  br label %if.end17

if.end17:                                         ; preds = %if.else15, %if.end14
  br label %if.end20

if.else18:                                        ; preds = %if.then5
  %12 = load ptr, ptr %suffix.addr, align 8
  %call19 = call noalias ptr @g_strdup(ptr noundef %12)
  store ptr %call19, ptr %s, align 8
  br label %if.end20

if.end20:                                         ; preds = %if.else18, %if.end17
  br label %if.end21

if.end21:                                         ; preds = %if.end20, %if.end3
  %13 = load ptr, ptr %devpath, align 8
  %tobool22 = icmp ne ptr %13, null
  br i1 %tobool22, label %cond.true, label %cond.false

cond.true:                                        ; preds = %if.end21
  %14 = load ptr, ptr %devpath, align 8
  br label %cond.end

cond.false:                                       ; preds = %if.end21
  br label %cond.end

cond.end:                                         ; preds = %cond.false, %cond.true
  %cond = phi ptr [ %14, %cond.true ], [ @.str.15, %cond.false ]
  %15 = load ptr, ptr %s, align 8
  %tobool23 = icmp ne ptr %15, null
  br i1 %tobool23, label %cond.true24, label %cond.false25

cond.true24:                                      ; preds = %cond.end
  %16 = load ptr, ptr %s, align 8
  br label %cond.end26

cond.false25:                                     ; preds = %cond.end
  br label %cond.end26

cond.end26:                                       ; preds = %cond.false25, %cond.true24
  %cond27 = phi ptr [ %16, %cond.true24 ], [ @.str.15, %cond.false25 ]
  %call28 = call noalias ptr (ptr, ...) @g_strdup_printf(ptr noundef @.str.14, ptr noundef %cond, ptr noundef %cond27)
  store ptr %call28, ptr %bootpath, align 8
  %17 = load ptr, ptr %devpath, align 8
  call void @g_free(ptr noundef %17)
  %18 = load ptr, ptr %s, align 8
  call void @g_free(ptr noundef %18)
  %19 = load ptr, ptr %bootpath, align 8
  ret ptr %19
}