; Function Attrs: nounwind sspstrong uwtable
define internal fastcc noalias ptr @get_boot_device_path(ptr noundef %dev, i1 noundef zeroext %ignore_suffixes, ptr noundef %suffix) unnamed_addr #1 {
entry:
  %tobool.not = icmp eq ptr %dev, null
  br i1 %tobool.not, label %if.end3, label %if.then

if.then:                                          ; preds = %entry
  %call = tail call ptr @qdev_get_fw_dev_path(ptr noundef nonnull %dev) #11
  %tobool1.not = icmp eq ptr %call, null
  br i1 %tobool1.not, label %if.else, label %if.end3.thread

if.else:                                          ; preds = %if.then
  tail call void @__assert_fail(ptr noundef nonnull @.str.12, ptr noundef nonnull @.str, i32 noundef 212, ptr noundef nonnull @__PRETTY_FUNCTION__.get_boot_device_path) #12
  unreachable

if.end3:                                          ; preds = %entry
  br i1 %ignore_suffixes, label %if.end21, label %if.end21.sink.split

if.end3.thread:                                   ; preds = %if.then
  br i1 %ignore_suffixes, label %if.end21, label %if.then7

if.then7:                                         ; preds = %if.end3.thread
  %parent_bus = getelementptr inbounds nuw i8, ptr %dev, i64 88
  %0 = load ptr, ptr %parent_bus, align 8
  %call8 = tail call ptr @qdev_get_own_fw_dev_path_from_handler(ptr noundef %0, ptr noundef nonnull %dev) #11
  %tobool9.not = icmp eq ptr %call8, null
  br i1 %tobool9.not, label %if.end21.sink.split, label %if.then10

if.then10:                                        ; preds = %if.then7
  %tobool11.not = icmp eq ptr %suffix, null
  br i1 %tobool11.not, label %if.end21, label %if.else13

if.else13:                                        ; preds = %if.then10
  tail call void @__assert_fail(ptr noundef nonnull @.str.13, ptr noundef nonnull @.str, i32 noundef 219, ptr noundef nonnull @__PRETTY_FUNCTION__.get_boot_device_path) #12
  unreachable

if.end21.sink.split:                              ; preds = %if.end3, %if.then7
  %devpath.015.ph = phi ptr [ %call, %if.then7 ], [ null, %if.end3 ]
  %call19 = tail call noalias ptr @g_strdup(ptr noundef %suffix) #11
  br label %if.end21

if.end21:                                         ; preds = %if.end21.sink.split, %if.end3.thread, %if.then10, %if.end3
  %devpath.015 = phi ptr [ null, %if.end3 ], [ %call, %if.then10 ], [ %call, %if.end3.thread ], [ %devpath.015.ph, %if.end21.sink.split ]
  %s.0 = phi ptr [ null, %if.end3 ], [ %call8, %if.then10 ], [ null, %if.end3.thread ], [ %call19, %if.end21.sink.split ]
  %tobool22.not = icmp eq ptr %devpath.015, null
  %cond = select i1 %tobool22.not, ptr @.str.15, ptr %devpath.015
  %tobool23.not = icmp eq ptr %s.0, null
  %cond27 = select i1 %tobool23.not, ptr @.str.15, ptr %s.0
  %call28 = tail call noalias ptr (ptr, ...) @g_strdup_printf(ptr noundef nonnull @.str.14, ptr noundef nonnull %cond, ptr noundef nonnull %cond27) #11
  tail call void @g_free(ptr noundef %devpath.015) #11
  tail call void @g_free(ptr noundef %s.0) #11
  ret ptr %call28
}